target datalayout = "e-m:e-p270:32:32-p271:32:32-p272:64:64-i64:64-i128:128-f80:128-n8:16:32:64-S128"
target triple = "x86_64-pc-linux-gnu"

%struct.reftable_write_options = type { i8, i32, i8, i16, i32, i32, i8, i8, i64, ptr, ptr, ptr }
%struct.reftable_stack = type { %struct.stat, ptr, i32, ptr, %struct.reftable_write_options, ptr, i64, ptr, %struct.reftable_compaction_stats }
%struct.stat = type { i64, i64, i64, i32, i32, i32, i32, i64, i64, i64, i64, %struct.timespec, %struct.timespec, %struct.timespec, [3 x i64] }
%struct.timespec = type { i64, i64 }
%struct.reftable_compaction_stats = type { i64, i64, i32, i32 }
%struct.reftable_reader = type { ptr, %struct.reftable_block_source, i64, i32, i32, i64, i64, i32, i32, %struct.reftable_reader_offsets, %struct.reftable_reader_offsets, %struct.reftable_reader_offsets, i64 }
%struct.reftable_block_source = type { ptr, ptr }
%struct.reftable_reader_offsets = type { i32, i64, i64 }
%struct.reftable_merged_table = type { ptr, i64, i32, i32, i64, i64 }

; Function Attrs: nounwind uwtable
define dso_local i32 @read_lines(ptr noundef %0, ptr noundef %1) #0 {
  %3 = alloca i32, align 4
  %4 = alloca ptr, align 8
  %5 = alloca ptr, align 8
  %6 = alloca i32, align 4
  %7 = alloca i32, align 4
  %8 = alloca i32, align 4
  store ptr %0, ptr %4, align 8, !tbaa !9
  store ptr %1, ptr %5, align 8, !tbaa !53
  call void @llvm.lifetime.start.p0(i64 4, ptr %6) #10
  %9 = load ptr, ptr %4, align 8, !tbaa !9
  %10 = call i32 (ptr, i32, ...) @open64(ptr noundef %9, i32 noundef 0)
  store i32 %10, ptr %6, align 4, !tbaa !15
  call void @llvm.lifetime.start.p0(i64 4, ptr %7) #10
  store i32 0, ptr %7, align 4, !tbaa !15
  %11 = load i32, ptr %6, align 4, !tbaa !15
  %12 = icmp slt i32 %11, 0
  br i1 %12, label %13, label %26

13:                                               ; preds = %2
  %14 = call ptr @__errno_location() #11
  %15 = load i32, ptr %14, align 4, !tbaa !15
  %16 = icmp eq i32 %15, 2
  br i1 %16, label %17, label %25

17:                                               ; preds = %13
  %18 = call ptr @reftable_calloc(i64 noundef 1, i64 noundef 8)
  %19 = load ptr, ptr %5, align 8, !tbaa !53
  store ptr %18, ptr %19, align 8, !tbaa !35
  %20 = load ptr, ptr %5, align 8, !tbaa !53
  %21 = load ptr, ptr %20, align 8, !tbaa !35
  %22 = icmp ne ptr %21, null
  br i1 %22, label %24, label %23

23:                                               ; preds = %17
  store i32 -13, ptr %3, align 4
  store i32 1, ptr %8, align 4
  br label %33

24:                                               ; preds = %17
  store i32 0, ptr %3, align 4
  store i32 1, ptr %8, align 4
  br label %33

25:                                               ; preds = %13
  store i32 -2, ptr %3, align 4
  store i32 1, ptr %8, align 4
  br label %33

26:                                               ; preds = %2
  %27 = load i32, ptr %6, align 4, !tbaa !15
  %28 = load ptr, ptr %5, align 8, !tbaa !53
  %29 = call i32 @fd_read_lines(i32 noundef %27, ptr noundef %28)
  store i32 %29, ptr %7, align 4, !tbaa !15
  %30 = load i32, ptr %6, align 4, !tbaa !15
  %31 = call i32 @close(i32 noundef %30)
  %32 = load i32, ptr %7, align 4, !tbaa !15
  store i32 %32, ptr %3, align 4
  store i32 1, ptr %8, align 4
  br label %33

33:                                               ; preds = %26, %25, %24, %23
  call void @llvm.lifetime.end.p0(i64 4, ptr %7) #10
  call void @llvm.lifetime.end.p0(i64 4, ptr %6) #10
  %34 = load i32, ptr %3, align 4
  ret i32 %34
}

; Function Attrs: nounwind uwtable
define internal i32 @stack_uptodate(ptr noundef %0) #0 {
  %2 = alloca i32, align 4
  %3 = alloca ptr, align 8
  %4 = alloca ptr, align 8
  %5 = alloca i32, align 4
  %6 = alloca %struct.stat, align 8
  %7 = alloca i32, align 4
  %8 = alloca i64, align 8
  store ptr %0, ptr %3, align 8, !tbaa !13
  call void @llvm.lifetime.start.p0(i64 8, ptr %4) #10
  store ptr null, ptr %4, align 8, !tbaa !35
  call void @llvm.lifetime.start.p0(i64 4, ptr %5) #10
  %9 = load ptr, ptr %3, align 8, !tbaa !13
  %10 = getelementptr inbounds nuw %struct.reftable_stack, ptr %9, i32 0, i32 2
  %11 = load i32, ptr %10, align 8, !tbaa !33
  %12 = icmp sge i32 %11, 0
  br i1 %12, label %13, label %53

13:                                               ; preds = %1
  call void @llvm.lifetime.start.p0(i64 144, ptr %6) #10
  %14 = load ptr, ptr %3, align 8, !tbaa !13
  %15 = getelementptr inbounds nuw %struct.reftable_stack, ptr %14, i32 0, i32 1
  %16 = load ptr, ptr %15, align 8, !tbaa !26
  %17 = call i32 @stat64(ptr noundef %16, ptr noundef %6) #10
  %18 = icmp slt i32 %17, 0
  br i1 %18, label %19, label %32

19:                                               ; preds = %13
  %20 = call ptr @__errno_location() #11
  %21 = load i32, ptr %20, align 4, !tbaa !15
  %22 = icmp eq i32 %21, 2
  br i1 %22, label %23, label %31

23:                                               ; preds = %19
  %24 = load ptr, ptr %3, align 8, !tbaa !13
  %25 = getelementptr inbounds nuw %struct.reftable_stack, ptr %24, i32 0, i32 6
  %26 = load i64, ptr %25, align 8, !tbaa !45
  %27 = icmp ne i64 %26, 0
  %28 = xor i1 %27, true
  %29 = xor i1 %28, true
  %30 = zext i1 %29 to i32
  store i32 %30, ptr %2, align 4
  store i32 1, ptr %7, align 4
  br label %50

31:                                               ; preds = %19
  store i32 -2, ptr %2, align 4
  store i32 1, ptr %7, align 4
  br label %50

32:                                               ; preds = %13
  %33 = load ptr, ptr %3, align 8, !tbaa !13
  %34 = getelementptr inbounds nuw %struct.reftable_stack, ptr %33, i32 0, i32 0
  %35 = getelementptr inbounds nuw %struct.stat, ptr %34, i32 0, i32 0
  %36 = load i64, ptr %35, align 8, !tbaa !39
  %37 = getelementptr inbounds nuw %struct.stat, ptr %6, i32 0, i32 0
  %38 = load i64, ptr %37, align 8, !tbaa !60
  %39 = icmp eq i64 %36, %38
  br i1 %39, label %40, label %49

40:                                               ; preds = %32
  %41 = load ptr, ptr %3, align 8, !tbaa !13
  %42 = getelementptr inbounds nuw %struct.reftable_stack, ptr %41, i32 0, i32 0
  %43 = getelementptr inbounds nuw %struct.stat, ptr %42, i32 0, i32 1
  %44 = load i64, ptr %43, align 8, !tbaa !40
  %45 = getelementptr inbounds nuw %struct.stat, ptr %6, i32 0, i32 1
  %46 = load i64, ptr %45, align 8, !tbaa !61
  %47 = icmp eq i64 %44, %46
  br i1 %47, label %48, label %49

48:                                               ; preds = %40
  store i32 0, ptr %2, align 4
  store i32 1, ptr %7, align 4
  br label %50

49:                                               ; preds = %40, %32
  store i32 0, ptr %7, align 4
  br label %50

50:                                               ; preds = %49, %48, %31, %23
  call void @llvm.lifetime.end.p0(i64 144, ptr %6) #10
  %51 = load i32, ptr %7, align 4
  switch i32 %51, label %114 [
    i32 0, label %52
  ]

52:                                               ; preds = %50
  br label %53

53:                                               ; preds = %52, %1
  %54 = load ptr, ptr %3, align 8, !tbaa !13
  %55 = getelementptr inbounds nuw %struct.reftable_stack, ptr %54, i32 0, i32 1
  %56 = load ptr, ptr %55, align 8, !tbaa !26
  %57 = call i32 @read_lines(ptr noundef %56, ptr noundef %4)
  store i32 %57, ptr %5, align 4, !tbaa !15
  %58 = load i32, ptr %5, align 4, !tbaa !15
  %59 = icmp slt i32 %58, 0
  br i1 %59, label %60, label %62

60:                                               ; preds = %53
  %61 = load i32, ptr %5, align 4, !tbaa !15
  store i32 %61, ptr %2, align 4
  store i32 1, ptr %7, align 4
  br label %114

62:                                               ; preds = %53
  call void @llvm.lifetime.start.p0(i64 8, ptr %8) #10
  store i64 0, ptr %8, align 8, !tbaa !21
  br label %63

63:                                               ; preds = %94, %62
  %64 = load i64, ptr %8, align 8, !tbaa !21
  %65 = load ptr, ptr %3, align 8, !tbaa !13
  %66 = getelementptr inbounds nuw %struct.reftable_stack, ptr %65, i32 0, i32 6
  %67 = load i64, ptr %66, align 8, !tbaa !45
  %68 = icmp ult i64 %64, %67
  br i1 %68, label %70, label %69

69:                                               ; preds = %63
  store i32 2, ptr %7, align 4
  br label %97

70:                                               ; preds = %63
  %71 = load ptr, ptr %4, align 8, !tbaa !35
  %72 = load i64, ptr %8, align 8, !tbaa !21
  %73 = getelementptr inbounds nuw ptr, ptr %71, i64 %72
  %74 = load ptr, ptr %73, align 8, !tbaa !9
  %75 = icmp ne ptr %74, null
  br i1 %75, label %77, label %76

76:                                               ; preds = %70
  store i32 1, ptr %5, align 4, !tbaa !15
  store i32 5, ptr %7, align 4
  br label %97

77:                                               ; preds = %70
  %78 = load ptr, ptr %3, align 8, !tbaa !13
  %79 = getelementptr inbounds nuw %struct.reftable_stack, ptr %78, i32 0, i32 5
  %80 = load ptr, ptr %79, align 8, !tbaa !44
  %81 = load i64, ptr %8, align 8, !tbaa !21
  %82 = getelementptr inbounds nuw ptr, ptr %80, i64 %81
  %83 = load ptr, ptr %82, align 8, !tbaa !46
  %84 = getelementptr inbounds nuw %struct.reftable_reader, ptr %83, i32 0, i32 0
  %85 = load ptr, ptr %84, align 8, !tbaa !62
  %86 = load ptr, ptr %4, align 8, !tbaa !35
  %87 = load i64, ptr %8, align 8, !tbaa !21
  %88 = getelementptr inbounds nuw ptr, ptr %86, i64 %87
  %89 = load ptr, ptr %88, align 8, !tbaa !9
  %90 = call i32 @strcmp(ptr noundef %85, ptr noundef %89) #12
  %91 = icmp ne i32 %90, 0
  br i1 %91, label %92, label %93

92:                                               ; preds = %77
  store i32 1, ptr %5, align 4, !tbaa !15
  store i32 5, ptr %7, align 4
  br label %97

93:                                               ; preds = %77
  br label %94

94:                                               ; preds = %93
  %95 = load i64, ptr %8, align 8, !tbaa !21
  %96 = add i64 %95, 1
  store i64 %96, ptr %8, align 8, !tbaa !21
  br label %63, !llvm.loop !67

97:                                               ; preds = %92, %76, %69
  call void @llvm.lifetime.end.p0(i64 8, ptr %8) #10
  %98 = load i32, ptr %7, align 4
  switch i32 %98, label %114 [
    i32 2, label %99
    i32 5, label %111
  ]

99:                                               ; preds = %97
  %100 = load ptr, ptr %4, align 8, !tbaa !35
  %101 = load ptr, ptr %3, align 8, !tbaa !13
  %102 = getelementptr inbounds nuw %struct.reftable_stack, ptr %101, i32 0, i32 7
  %103 = load ptr, ptr %102, align 8, !tbaa !43
  %104 = getelementptr inbounds nuw %struct.reftable_merged_table, ptr %103, i32 0, i32 1
  %105 = load i64, ptr %104, align 8, !tbaa !68
  %106 = getelementptr inbounds nuw ptr, ptr %100, i64 %105
  %107 = load ptr, ptr %106, align 8, !tbaa !9
  %108 = icmp ne ptr %107, null
  br i1 %108, label %109, label %110

109:                                              ; preds = %99
  store i32 1, ptr %5, align 4, !tbaa !15
  br label %111

110:                                              ; preds = %99
  br label %111

111:                                              ; preds = %110, %97, %109
  %112 = load ptr, ptr %4, align 8, !tbaa !35
  call void @free_names(ptr noundef %112)
  %113 = load i32, ptr %5, align 4, !tbaa !15
  store i32 %113, ptr %2, align 4
  store i32 1, ptr %7, align 4
  br label %114

114:                                              ; preds = %111, %97, %60, %50
  call void @llvm.lifetime.end.p0(i64 4, ptr %5) #10
  call void @llvm.lifetime.end.p0(i64 8, ptr %4) #10
  %115 = load i32, ptr %2, align 4
  ret i32 %115
}