; Function Attrs: nounwind uwtable
define internal fastcc range(i32 -13, -2147483648) i32 @stack_uptodate(ptr noundef readonly captures(none) %0) unnamed_addr #0 {
  %2 = alloca ptr, align 8
  %3 = alloca %struct.stat, align 8
  call void @llvm.lifetime.start.p0(i64 8, ptr nonnull %2) #16
  store ptr null, ptr %2, align 8, !tbaa !30
  %4 = getelementptr inbounds nuw i8, ptr %0, i64 152
  %5 = load i32, ptr %4, align 8, !tbaa !28
  %6 = icmp sgt i32 %5, -1
  br i1 %6, label %7, label %32

7:                                                ; preds = %1
  call void @llvm.lifetime.start.p0(i64 144, ptr nonnull %3) #16
  %8 = getelementptr inbounds nuw i8, ptr %0, i64 144
  %9 = load ptr, ptr %8, align 8, !tbaa !19
  %10 = call i32 @stat64(ptr noundef %9, ptr noundef nonnull %3) #16
  %11 = icmp slt i32 %10, 0
  br i1 %11, label %12, label %21

12:                                               ; preds = %7
  %13 = tail call ptr @__errno_location() #17
  %14 = load i32, ptr %13, align 4, !tbaa !8
  %15 = icmp eq i32 %14, 2
  br i1 %15, label %16, label %.thread

16:                                               ; preds = %12
  %17 = getelementptr inbounds nuw i8, ptr %0, i64 232
  %18 = load i64, ptr %17, align 8, !tbaa !55
  %19 = icmp ne i64 %18, 0
  %20 = zext i1 %19 to i32
  br label %.thread

21:                                               ; preds = %7
  %22 = load i64, ptr %0, align 8, !tbaa !58
  %23 = load i64, ptr %3, align 8, !tbaa !64
  %24 = icmp eq i64 %22, %23
  br i1 %24, label %25, label %31

25:                                               ; preds = %21
  %26 = getelementptr inbounds nuw i8, ptr %0, i64 8
  %27 = load i64, ptr %26, align 8, !tbaa !59
  %28 = getelementptr inbounds nuw i8, ptr %3, i64 8
  %29 = load i64, ptr %28, align 8, !tbaa !65
  %30 = icmp eq i64 %27, %29
  br i1 %30, label %.thread, label %31

.thread:                                          ; preds = %16, %12, %25
  %.123.ph = phi i32 [ 0, %25 ], [ -2, %12 ], [ %20, %16 ]
  call void @llvm.lifetime.end.p0(i64 144, ptr nonnull %3) #16
  br label %read_lines.exit.thread

31:                                               ; preds = %21, %25
  call void @llvm.lifetime.end.p0(i64 144, ptr nonnull %3) #16
  br label %32

32:                                               ; preds = %31, %1
  %33 = getelementptr inbounds nuw i8, ptr %0, i64 144
  %34 = load ptr, ptr %33, align 8, !tbaa !19
  %35 = tail call i32 (ptr, i32, ...) @open64(ptr noundef readonly %34, i32 noundef 0) #16
  %36 = icmp slt i32 %35, 0
  br i1 %36, label %37, label %read_lines.exit

37:                                               ; preds = %32
  %38 = tail call ptr @__errno_location() #17
  %39 = load i32, ptr %38, align 4, !tbaa !8
  %40 = icmp eq i32 %39, 2
  br i1 %40, label %41, label %read_lines.exit.thread

41:                                               ; preds = %37
  %42 = tail call ptr @reftable_calloc(i64 noundef 1, i64 noundef 8) #16
  store ptr %42, ptr %2, align 8, !tbaa !30
  %.not.i = icmp eq ptr %42, null
  br i1 %.not.i, label %read_lines.exit.thread, label %.preheader

read_lines.exit:                                  ; preds = %32
  %43 = call fastcc i32 @fd_read_lines(i32 noundef %35, ptr noundef nonnull %2)
  %44 = tail call i32 @close(i32 noundef %35) #16
  %45 = icmp slt i32 %43, 0
  br i1 %45, label %read_lines.exit.thread, label %.preheader

.preheader:                                       ; preds = %41, %read_lines.exit
  %.0.i40 = phi i32 [ %43, %read_lines.exit ], [ 0, %41 ]
  %46 = getelementptr inbounds nuw i8, ptr %0, i64 232
  %47 = load i64, ptr %46, align 8, !tbaa !55
  %.not37 = icmp eq i64 %47, 0
  %.pre = load ptr, ptr %2, align 8, !tbaa !30
  br i1 %.not37, label %._crit_edge, label %.lr.ph

.lr.ph:                                           ; preds = %.preheader
  %48 = getelementptr inbounds nuw i8, ptr %0, i64 224
  br label %51

49:                                               ; preds = %54
  %50 = add nuw i64 %.036, 1
  %exitcond.not = icmp eq i64 %50, %47
  br i1 %exitcond.not, label %._crit_edge, label %51, !llvm.loop !66

51:                                               ; preds = %.lr.ph, %49
  %.036 = phi i64 [ 0, %.lr.ph ], [ %50, %49 ]
  %52 = getelementptr inbounds nuw ptr, ptr %.pre, i64 %.036
  %53 = load ptr, ptr %52, align 8, !tbaa !43
  %.not = icmp eq ptr %53, null
  br i1 %.not, label %.thread33, label %54

54:                                               ; preds = %51
  %55 = load ptr, ptr %48, align 8, !tbaa !38
  %56 = getelementptr inbounds nuw ptr, ptr %55, i64 %.036
  %57 = load ptr, ptr %56, align 8, !tbaa !39
  %58 = load ptr, ptr %57, align 8, !tbaa !44
  %59 = tail call i32 @strcmp(ptr noundef nonnull dereferenceable(1) %58, ptr noundef nonnull dereferenceable(1) %53) #18
  %.not27 = icmp eq i32 %59, 0
  br i1 %.not27, label %49, label %.thread33

._crit_edge:                                      ; preds = %49, %.preheader
  %60 = getelementptr inbounds nuw i8, ptr %0, i64 240
  %61 = load ptr, ptr %60, align 8, !tbaa !34
  %62 = getelementptr inbounds nuw i8, ptr %61, i64 8
  %63 = load i64, ptr %62, align 8, !tbaa !36
  %64 = getelementptr inbounds nuw ptr, ptr %.pre, i64 %63
  %65 = load ptr, ptr %64, align 8, !tbaa !43
  %.not28 = icmp eq ptr %65, null
  %spec.select = select i1 %.not28, i32 %.0.i40, i32 1
  br label %.thread33

.thread33:                                        ; preds = %54, %51, %._crit_edge
  %.121 = phi i32 [ %spec.select, %._crit_edge ], [ 1, %51 ], [ 1, %54 ]
  tail call void @free_names(ptr noundef nonnull %.pre) #16
  br label %read_lines.exit.thread

read_lines.exit.thread:                           ; preds = %41, %37, %.thread, %read_lines.exit, %.thread33
  %.2 = phi i32 [ %.121, %.thread33 ], [ %43, %read_lines.exit ], [ %.123.ph, %.thread ], [ -2, %37 ], [ -13, %41 ]
  call void @llvm.lifetime.end.p0(i64 8, ptr nonnull %2) #16
  ret i32 %.2
}